target datalayout = "e-m:e-p270:32:32-p271:32:32-p272:64:64-i64:64-i128:128-f80:128-n8:16:32:64-S128"
target triple = "x86_64-pc-linux-gnu"

%struct.dt_pthread_mutex_t = type { %union.pthread_mutex_t }
%union.pthread_mutex_t = type { %struct.__pthread_mutex_s }
%struct.__pthread_mutex_s = type { i32, i32, i32, i32, i32, i16, i16, %struct.__pthread_internal_list }
%struct.__pthread_internal_list = type { ptr, ptr }
%struct.dt_dev_pixelpipe_t = type { %struct.dt_dev_pixelpipe_cache_t, i32, i64, ptr, i32, i32, float, i32, i32, [12 x i8], %struct.dt_iop_buffer_dsc_t, ptr, ptr, ptr, ptr, i32, i32, i32, i32, ptr, i64, i32, i32, float, float, float, i64, %struct.dt_pthread_mutex_t, %struct.dt_pthread_mutex_t, %struct.dt_pthread_mutex_t, i32, i32, i32, %struct.dt_dev_detail_mask_t, i32, i32, i32, i32, i32, i32, i32, i32, i32, i32, i32, i32, i32, i32, [8 x i8], %struct.dt_image_t, i32, ptr, i32, ptr, ptr, ptr, i32, ptr, i64, [8 x i8] }
%struct.dt_dev_pixelpipe_cache_t = type { i32, i64, i64, ptr, ptr, ptr, ptr, ptr, ptr, i64, i32, i64, i64, i32, i32, i32 }
%struct.dt_iop_buffer_dsc_t = type { i32, i32, i32, [6 x [6 x i8]], %struct.anon, [12 x i8], %struct.anon.0, [4 x float], i32, [12 x i8] }
%struct.anon = type { i16, i16 }
%struct.anon.0 = type { i32, [12 x i8], [4 x float] }
%struct.dt_dev_detail_mask_t = type { %struct.dt_iop_roi_t, i64, ptr }
%struct.dt_iop_roi_t = type { i32, i32, i32, i32, float }
%struct.dt_image_t = type { i32, i32, float, float, float, float, float, float, float, [64 x i8], [64 x i8], [128 x i8], [64 x i8], [64 x i8], [64 x i8], [64 x i8], i64, i32, %union.dt_image_correction_data_t, [64 x i8], [64 x i8], [64 x i8], [128 x i8], i32, [256 x i8], i32, i32, i32, i32, i32, i32, i32, i32, i32, i32, float, i32, i32, i32, i32, i32, i32, i64, i64, i64, i64, i32, [12 x i8], %struct.dt_iop_buffer_dsc_t, [9 x float], ptr, i32, i32, %struct.dt_image_raw_parameters_t, %struct.dt_image_geoloc_t, %struct._color_harmony_t, i16, [4 x i16], i32, i32, float, float, [4 x float], [4 x [3 x float]], [4 x float], ptr, ptr, i32, i32, [8 x i8] }
%union.dt_image_correction_data_t = type { %struct.anon.2 }
%struct.anon.2 = type { i32, float, [11 x float], [11 x float], [11 x float], [11 x float], [11 x float] }
%struct.dt_image_raw_parameters_t = type { i32 }
%struct.dt_image_geoloc_t = type { double, double, double }
%struct._color_harmony_t = type { i32, i32, i32 }
%struct._GList = type { ptr, ptr, ptr }
%struct.dt_dev_pixelpipe_iop_t = type { ptr, ptr, ptr, ptr, i32, i32, %struct.dt_dev_histogram_collection_params_t, ptr, %struct.dt_dev_histogram_stats_t, [4 x i32], float, i32, i32, i64, i32, i32, %struct.dt_iop_roi_t, %struct.dt_iop_roi_t, %struct.dt_iop_roi_t, %struct.dt_iop_roi_t, i32, i32, %struct.dt_iop_buffer_dsc_t, %struct.dt_iop_buffer_dsc_t, ptr, [8 x i8] }
%struct.dt_dev_histogram_collection_params_t = type { ptr, i32 }
%struct.dt_dev_histogram_stats_t = type { i32, i64, i32, i32 }
%struct.dt_iop_module_t = type { i32, ptr, ptr, ptr, ptr, ptr, ptr, ptr, ptr, ptr, ptr, ptr, ptr, ptr, ptr, ptr, ptr, ptr, ptr, ptr, ptr, ptr, ptr, ptr, ptr, ptr, ptr, ptr, ptr, ptr, ptr, ptr, ptr, ptr, ptr, ptr, ptr, ptr, ptr, ptr, ptr, ptr, ptr, ptr, ptr, ptr, ptr, ptr, ptr, ptr, ptr, ptr, ptr, ptr, ptr, ptr, ptr, [20 x i8], i32, i32, i32, i32, i32, i32, i32, [8 x i8], [4 x float], [4 x float], [4 x float], [4 x float], [4 x float], [4 x float], ptr, %struct.dt_dev_histogram_stats_t, [4 x i32], i32, i32, ptr, i32, i32, ptr, ptr, i32, ptr, %struct.dt_pthread_mutex_t, ptr, ptr, ptr, ptr, %struct.anon.5, ptr, ptr, ptr, ptr, ptr, ptr, ptr, i32, ptr, ptr, ptr, ptr, ptr, ptr, ptr, i32, ptr, i32, [128 x i8], i32, ptr, ptr, i32, [12 x i8] }
%struct.anon.5 = type { %struct.anon.6, %struct.anon.7 }
%struct.anon.6 = type { ptr, ptr }
%struct.anon.7 = type { ptr, i32 }
%struct.dt_develop_t = type { i32, i32, i32, ptr, double, double, i32, i32, i32, i32, i32, double, i32, i32, i32, ptr, ptr, [8 x i8], %struct.dt_image_t, i32, i32, %struct.dt_pthread_mutex_t, i32, ptr, i32, ptr, i32, ptr, ptr, i32, ptr, ptr, ptr, ptr, i32, i32, ptr, ptr, ptr, ptr, i32, i32, i32, float, float, ptr, i32, %struct.anon.8, %struct.dt_dev_chroma_t, %struct.anon.11, %struct.anon.12, %struct.anon.13, %struct.anon.14, %struct.anon.15, %struct.anon.16, ptr, ptr, %struct.dt_dev_viewport_t, %struct.dt_dev_viewport_t, i32, i32, i32, ptr, [8 x i8] }
%struct.anon.8 = type { %struct.dt_dev_proxy_exposure_t, ptr, %struct.anon.9, %struct.anon.10 }
%struct.dt_dev_proxy_exposure_t = type { ptr, ptr, ptr, ptr }
%struct.anon.9 = type { ptr, ptr, ptr, ptr, ptr, ptr, ptr, ptr, ptr }
%struct.anon.10 = type { ptr, ptr, ptr, ptr, ptr }
%struct.dt_dev_chroma_t = type { ptr, ptr, [4 x double], [4 x double], [4 x double], i32 }
%struct.anon.11 = type { ptr, ptr, ptr }
%struct.anon.12 = type { ptr, ptr, i32, i32, float, float, i32 }
%struct.anon.13 = type { ptr, ptr, i32, i32, i32, float }
%struct.anon.14 = type { ptr }
%struct.anon.15 = type { ptr, i32 }
%struct.anon.16 = type { ptr, ptr, ptr }
%struct.dt_dev_viewport_t = type { ptr, i32, i32, i32, i32, i32, double, double, double, i32, i32, i32, float, float, float, ptr }

@.str.53 = private unnamed_addr constant [124 x i8] c"generated/home/dtcxzyw/WorkSpace/Projects/compilers/llvm-opt-benchmark/bench/darktable/darktable/src/develop/pixelpipe_hb.c\00", align 1
@__func__.dt_dev_pixelpipe_create_nodes = private unnamed_addr constant [30 x i8] c"dt_dev_pixelpipe_create_nodes\00", align 1
@.str.54 = private unnamed_addr constant [20 x i8] c"pipe->nodes == NULL\00", align 1
@.str.55 = private unnamed_addr constant [18 x i8] c"pipe->iop == NULL\00", align 1
@.str.56 = private unnamed_addr constant [29 x i8] c"pipe->iop_order_list == NULL\00", align 1

; Function Attrs: inlinehint nounwind uwtable
define internal i32 @dt_pthread_mutex_unlock(ptr noundef %0) #6 {
  %2 = alloca ptr, align 8
  store ptr %0, ptr %2, align 8, !tbaa !190
  %3 = load ptr, ptr %2, align 8, !tbaa !190
  %4 = getelementptr inbounds nuw %struct.dt_pthread_mutex_t, ptr %3, i32 0, i32 0
  %5 = call i32 @pthread_mutex_unlock(ptr noundef %4) #17
  ret i32 %5
}

; Function Attrs: inlinehint nounwind uwtable
define available_externally void @dt_atomic_set_int(ptr noundef %0, i32 noundef %1) #6 {
  %3 = alloca ptr, align 8
  %4 = alloca i32, align 4
  %5 = alloca i32, align 4
  store ptr %0, ptr %3, align 8, !tbaa !33
  store i32 %1, ptr %4, align 4, !tbaa !11
  %6 = load ptr, ptr %3, align 8, !tbaa !33
  %7 = load i32, ptr %4, align 4, !tbaa !11
  store i32 %7, ptr %5, align 4, !tbaa !11
  %8 = load i32, ptr %5, align 4
  store atomic i32 %8, ptr %6 seq_cst, align 4
  ret void
}

; Function Attrs: inlinehint nounwind uwtable
define internal i32 @dt_pthread_mutex_lock(ptr noundef %0) #6 {
  %2 = alloca ptr, align 8
  store ptr %0, ptr %2, align 8, !tbaa !190
  %3 = load ptr, ptr %2, align 8, !tbaa !190
  %4 = getelementptr inbounds nuw %struct.dt_pthread_mutex_t, ptr %3, i32 0, i32 0
  %5 = call i32 @pthread_mutex_lock(ptr noundef %4) #17
  ret i32 %5
}

; Function Attrs: nounwind uwtable
define void @dt_dev_pixelpipe_create_nodes(ptr noundef %0, ptr noundef %1) #0 {
  %3 = alloca ptr, align 8
  %4 = alloca ptr, align 8
  %5 = alloca i32, align 4
  %6 = alloca i32, align 4
  %7 = alloca i32, align 4
  %8 = alloca i32, align 4
  %9 = alloca i32, align 4
  %10 = alloca i32, align 4
  %11 = alloca ptr, align 8
  %12 = alloca ptr, align 8
  %13 = alloca ptr, align 8
  store ptr %0, ptr %3, align 8, !tbaa !6
  store ptr %1, ptr %4, align 8, !tbaa !192
  %14 = load ptr, ptr %3, align 8, !tbaa !6
  %15 = getelementptr inbounds nuw %struct.dt_dev_pixelpipe_t, ptr %14, i32 0, i32 29
  %16 = call i32 @dt_pthread_mutex_lock(ptr noundef %15)
  %17 = load ptr, ptr %3, align 8, !tbaa !6
  %18 = getelementptr inbounds nuw %struct.dt_dev_pixelpipe_t, ptr %17, i32 0, i32 37
  call void @dt_atomic_set_int(ptr noundef %18, i32 noundef 0)
  br label %19

19:                                               ; preds = %2
  call void @llvm.lifetime.start.p0(i64 4, ptr %5) #17
  %20 = load ptr, ptr %3, align 8, !tbaa !6
  %21 = getelementptr inbounds nuw %struct.dt_dev_pixelpipe_t, ptr %20, i32 0, i32 14
  %22 = load ptr, ptr %21, align 8, !tbaa !90
  %23 = icmp eq ptr %22, null
  br i1 %23, label %24, label %25

24:                                               ; preds = %19
  store i32 1, ptr %5, align 4, !tbaa !11
  br label %26

25:                                               ; preds = %19
  store i32 0, ptr %5, align 4, !tbaa !11
  br label %26

26:                                               ; preds = %25, %24
  %27 = load i32, ptr %5, align 4, !tbaa !11
  store i32 %27, ptr %6, align 4, !tbaa !11
  call void @llvm.lifetime.end.p0(i64 4, ptr %5) #17
  %28 = load i32, ptr %6, align 4, !tbaa !11
  %29 = sext i32 %28 to i64
  %30 = call i64 @llvm.expect.i64(i64 %29, i64 1)
  %31 = icmp ne i64 %30, 0
  br i1 %31, label %32, label %33

32:                                               ; preds = %26
  br label %34

33:                                               ; preds = %26
  call void @g_assertion_message_expr(ptr noundef null, ptr noundef @.str.53, i32 noundef 415, ptr noundef @__func__.dt_dev_pixelpipe_create_nodes, ptr noundef @.str.54) #19
  unreachable

34:                                               ; preds = %32
  br label %35

35:                                               ; preds = %34
  br label %36

36:                                               ; preds = %35
  call void @llvm.lifetime.start.p0(i64 4, ptr %7) #17
  %37 = load ptr, ptr %3, align 8, !tbaa !6
  %38 = getelementptr inbounds nuw %struct.dt_dev_pixelpipe_t, ptr %37, i32 0, i32 53
  %39 = load ptr, ptr %38, align 8, !tbaa !179
  %40 = icmp eq ptr %39, null
  br i1 %40, label %41, label %42

41:                                               ; preds = %36
  store i32 1, ptr %7, align 4, !tbaa !11
  br label %43

42:                                               ; preds = %36
  store i32 0, ptr %7, align 4, !tbaa !11
  br label %43

43:                                               ; preds = %42, %41
  %44 = load i32, ptr %7, align 4, !tbaa !11
  store i32 %44, ptr %8, align 4, !tbaa !11
  call void @llvm.lifetime.end.p0(i64 4, ptr %7) #17
  %45 = load i32, ptr %8, align 4, !tbaa !11
  %46 = sext i32 %45 to i64
  %47 = call i64 @llvm.expect.i64(i64 %46, i64 1)
  %48 = icmp ne i64 %47, 0
  br i1 %48, label %49, label %50

49:                                               ; preds = %43
  br label %51

50:                                               ; preds = %43
  call void @g_assertion_message_expr(ptr noundef null, ptr noundef @.str.53, i32 noundef 416, ptr noundef @__func__.dt_dev_pixelpipe_create_nodes, ptr noundef @.str.55) #19
  unreachable

51:                                               ; preds = %49
  br label %52

52:                                               ; preds = %51
  br label %53

53:                                               ; preds = %52
  call void @llvm.lifetime.start.p0(i64 4, ptr %9) #17
  %54 = load ptr, ptr %3, align 8, !tbaa !6
  %55 = getelementptr inbounds nuw %struct.dt_dev_pixelpipe_t, ptr %54, i32 0, i32 54
  %56 = load ptr, ptr %55, align 16, !tbaa !180
  %57 = icmp eq ptr %56, null
  br i1 %57, label %58, label %59

58:                                               ; preds = %53
  store i32 1, ptr %9, align 4, !tbaa !11
  br label %60

59:                                               ; preds = %53
  store i32 0, ptr %9, align 4, !tbaa !11
  br label %60

60:                                               ; preds = %59, %58
  %61 = load i32, ptr %9, align 4, !tbaa !11
  store i32 %61, ptr %10, align 4, !tbaa !11
  call void @llvm.lifetime.end.p0(i64 4, ptr %9) #17
  %62 = load i32, ptr %10, align 4, !tbaa !11
  %63 = sext i32 %62 to i64
  %64 = call i64 @llvm.expect.i64(i64 %63, i64 1)
  %65 = icmp ne i64 %64, 0
  br i1 %65, label %66, label %67

66:                                               ; preds = %60
  br label %68

67:                                               ; preds = %60
  call void @g_assertion_message_expr(ptr noundef null, ptr noundef @.str.53, i32 noundef 417, ptr noundef @__func__.dt_dev_pixelpipe_create_nodes, ptr noundef @.str.56) #19
  unreachable

68:                                               ; preds = %66
  br label %69

69:                                               ; preds = %68
  %70 = load ptr, ptr %4, align 8, !tbaa !192
  %71 = getelementptr inbounds nuw %struct.dt_develop_t, ptr %70, i32 0, i32 30
  %72 = load ptr, ptr %71, align 16, !tbaa !224
  %73 = call ptr @dt_ioppr_iop_order_copy_deep(ptr noundef %72)
  %74 = load ptr, ptr %3, align 8, !tbaa !6
  %75 = getelementptr inbounds nuw %struct.dt_dev_pixelpipe_t, ptr %74, i32 0, i32 54
  store ptr %73, ptr %75, align 16, !tbaa !180
  %76 = load ptr, ptr %4, align 8, !tbaa !192
  %77 = getelementptr inbounds nuw %struct.dt_develop_t, ptr %76, i32 0, i32 27
  %78 = load ptr, ptr %77, align 8, !tbaa !225
  %79 = call ptr @g_list_copy(ptr noundef %78)
  %80 = load ptr, ptr %3, align 8, !tbaa !6
  %81 = getelementptr inbounds nuw %struct.dt_dev_pixelpipe_t, ptr %80, i32 0, i32 53
  store ptr %79, ptr %81, align 8, !tbaa !179
  call void @llvm.lifetime.start.p0(i64 8, ptr %11) #17
  %82 = load ptr, ptr %3, align 8, !tbaa !6
  %83 = getelementptr inbounds nuw %struct.dt_dev_pixelpipe_t, ptr %82, i32 0, i32 53
  %84 = load ptr, ptr %83, align 8, !tbaa !179
  store ptr %84, ptr %11, align 8, !tbaa !91
  br label %85

85:                                               ; preds = %179, %69
  %86 = load ptr, ptr %11, align 8, !tbaa !91
  %87 = icmp ne ptr %86, null
  br i1 %87, label %89, label %88

88:                                               ; preds = %85
  call void @llvm.lifetime.end.p0(i64 8, ptr %11) #17
  br label %181

89:                                               ; preds = %85
  call void @llvm.lifetime.start.p0(i64 8, ptr %12) #17
  %90 = load ptr, ptr %11, align 8, !tbaa !91
  %91 = getelementptr inbounds nuw %struct._GList, ptr %90, i32 0, i32 0
  %92 = load ptr, ptr %91, align 8, !tbaa !92
  store ptr %92, ptr %12, align 8, !tbaa !103
  call void @llvm.lifetime.start.p0(i64 8, ptr %13) #17
  %93 = call noalias ptr @calloc(i64 noundef 1, i64 noundef 496) #18
  store ptr %93, ptr %13, align 8, !tbaa !94
  %94 = load ptr, ptr %12, align 8, !tbaa !103
  %95 = getelementptr inbounds nuw %struct.dt_iop_module_t, ptr %94, i32 0, i32 78
  %96 = load i32, ptr %95, align 16, !tbaa !226
  %97 = load ptr, ptr %13, align 8, !tbaa !94
  %98 = getelementptr inbounds nuw %struct.dt_dev_pixelpipe_iop_t, ptr %97, i32 0, i32 4
  store i32 %96, ptr %98, align 16, !tbaa !227
  %99 = load ptr, ptr %13, align 8, !tbaa !94
  %100 = getelementptr inbounds nuw %struct.dt_dev_pixelpipe_iop_t, ptr %99, i32 0, i32 5
  store i32 2, ptr %100, align 4, !tbaa !228
  %101 = load ptr, ptr %13, align 8, !tbaa !94
  %102 = getelementptr inbounds nuw %struct.dt_dev_pixelpipe_iop_t, ptr %101, i32 0, i32 6
  %103 = getelementptr inbounds nuw %struct.dt_dev_histogram_collection_params_t, ptr %102, i32 0, i32 0
  store ptr null, ptr %103, align 8, !tbaa !229
  %104 = load ptr, ptr %13, align 8, !tbaa !94
  %105 = getelementptr inbounds nuw %struct.dt_dev_pixelpipe_iop_t, ptr %104, i32 0, i32 6
  %106 = getelementptr inbounds nuw %struct.dt_dev_histogram_collection_params_t, ptr %105, i32 0, i32 1
  store i32 256, ptr %106, align 8, !tbaa !230
  %107 = load ptr, ptr %13, align 8, !tbaa !94
  %108 = getelementptr inbounds nuw %struct.dt_dev_pixelpipe_iop_t, ptr %107, i32 0, i32 8
  %109 = getelementptr inbounds nuw %struct.dt_dev_histogram_stats_t, ptr %108, i32 0, i32 0
  store i32 0, ptr %109, align 16, !tbaa !231
  %110 = load ptr, ptr %13, align 8, !tbaa !94
  %111 = getelementptr inbounds nuw %struct.dt_dev_pixelpipe_iop_t, ptr %110, i32 0, i32 8
  %112 = getelementptr inbounds nuw %struct.dt_dev_histogram_stats_t, ptr %111, i32 0, i32 2
  store i32 0, ptr %112, align 16, !tbaa !232
  %113 = load ptr, ptr %12, align 8, !tbaa !103
  %114 = getelementptr inbounds nuw %struct.dt_iop_module_t, ptr %113, i32 0, i32 15
  %115 = load ptr, ptr %114, align 8, !tbaa !233
  %116 = load ptr, ptr %12, align 8, !tbaa !103
  %117 = load ptr, ptr %3, align 8, !tbaa !6
  %118 = call i32 %115(ptr noundef %116, ptr noundef %117, ptr noundef null)
  %119 = icmp eq i32 %118, 0
  %120 = select i1 %119, i32 1, i32 4
  %121 = load ptr, ptr %13, align 8, !tbaa !94
  %122 = getelementptr inbounds nuw %struct.dt_dev_pixelpipe_iop_t, ptr %121, i32 0, i32 15
  store i32 %120, ptr %122, align 4, !tbaa !234
  %123 = load ptr, ptr %3, align 8, !tbaa !6
  %124 = getelementptr inbounds nuw %struct.dt_dev_pixelpipe_t, ptr %123, i32 0, i32 6
  %125 = load float, ptr %124, align 8, !tbaa !195
  %126 = load ptr, ptr %13, align 8, !tbaa !94
  %127 = getelementptr inbounds nuw %struct.dt_dev_pixelpipe_iop_t, ptr %126, i32 0, i32 10
  store float %125, ptr %127, align 8, !tbaa !235
  %128 = load ptr, ptr %3, align 8, !tbaa !6
  %129 = getelementptr inbounds nuw %struct.dt_dev_pixelpipe_t, ptr %128, i32 0, i32 4
  %130 = load i32, ptr %129, align 16, !tbaa !158
  %131 = load ptr, ptr %13, align 8, !tbaa !94
  %132 = getelementptr inbounds nuw %struct.dt_dev_pixelpipe_iop_t, ptr %131, i32 0, i32 11
  store i32 %130, ptr %132, align 4, !tbaa !236
  %133 = load ptr, ptr %3, align 8, !tbaa !6
  %134 = getelementptr inbounds nuw %struct.dt_dev_pixelpipe_t, ptr %133, i32 0, i32 5
  %135 = load i32, ptr %134, align 4, !tbaa !162
  %136 = load ptr, ptr %13, align 8, !tbaa !94
  %137 = getelementptr inbounds nuw %struct.dt_dev_pixelpipe_iop_t, ptr %136, i32 0, i32 12
  store i32 %135, ptr %137, align 16, !tbaa !237
  %138 = load ptr, ptr %12, align 8, !tbaa !103
  %139 = load ptr, ptr %13, align 8, !tbaa !94
  %140 = getelementptr inbounds nuw %struct.dt_dev_pixelpipe_iop_t, ptr %139, i32 0, i32 0
  store ptr %138, ptr %140, align 16, !tbaa !96
  %141 = load ptr, ptr %3, align 8, !tbaa !6
  %142 = load ptr, ptr %13, align 8, !tbaa !94
  %143 = getelementptr inbounds nuw %struct.dt_dev_pixelpipe_iop_t, ptr %142, i32 0, i32 1
  store ptr %141, ptr %143, align 8, !tbaa !238
  %144 = load ptr, ptr %13, align 8, !tbaa !94
  %145 = getelementptr inbounds nuw %struct.dt_dev_pixelpipe_iop_t, ptr %144, i32 0, i32 2
  store ptr null, ptr %145, align 16, !tbaa !239
  %146 = load ptr, ptr %13, align 8, !tbaa !94
  %147 = getelementptr inbounds nuw %struct.dt_dev_pixelpipe_iop_t, ptr %146, i32 0, i32 13
  store i64 0, ptr %147, align 8, !tbaa !240
  %148 = load ptr, ptr %13, align 8, !tbaa !94
  %149 = getelementptr inbounds nuw %struct.dt_dev_pixelpipe_iop_t, ptr %148, i32 0, i32 20
  store i32 0, ptr %149, align 8, !tbaa !241
  %150 = load ptr, ptr %13, align 8, !tbaa !94
  %151 = getelementptr inbounds nuw %struct.dt_dev_pixelpipe_iop_t, ptr %150, i32 0, i32 21
  store i32 0, ptr %151, align 4, !tbaa !242
  %152 = call ptr @g_hash_table_new_full(ptr noundef @g_direct_hash, ptr noundef @g_direct_equal, ptr noundef null, ptr noundef @free)
  %153 = load ptr, ptr %13, align 8, !tbaa !94
  %154 = getelementptr inbounds nuw %struct.dt_dev_pixelpipe_iop_t, ptr %153, i32 0, i32 24
  store ptr %152, ptr %154, align 16, !tbaa !204
  %155 = load ptr, ptr %13, align 8, !tbaa !94
  %156 = getelementptr inbounds nuw %struct.dt_dev_pixelpipe_iop_t, ptr %155, i32 0, i32 18
  call void @llvm.memset.p0.i64(ptr align 16 %156, i8 0, i64 20, i1 false)
  %157 = load ptr, ptr %13, align 8, !tbaa !94
  %158 = getelementptr inbounds nuw %struct.dt_dev_pixelpipe_iop_t, ptr %157, i32 0, i32 19
  call void @llvm.memset.p0.i64(ptr align 4 %158, i8 0, i64 20, i1 false)
  %159 = load ptr, ptr %13, align 8, !tbaa !94
  %160 = getelementptr inbounds nuw %struct.dt_dev_pixelpipe_iop_t, ptr %159, i32 0, i32 0
  %161 = load ptr, ptr %160, align 16, !tbaa !96
  %162 = load ptr, ptr %3, align 8, !tbaa !6
  %163 = load ptr, ptr %13, align 8, !tbaa !94
  call void @dt_iop_init_pipe(ptr noundef %161, ptr noundef %162, ptr noundef %163)
  %164 = load ptr, ptr %3, align 8, !tbaa !6
  %165 = getelementptr inbounds nuw %struct.dt_dev_pixelpipe_t, ptr %164, i32 0, i32 14
  %166 = load ptr, ptr %165, align 8, !tbaa !90
  %167 = load ptr, ptr %13, align 8, !tbaa !94
  %168 = call ptr @g_list_append(ptr noundef %166, ptr noundef %167)
  %169 = load ptr, ptr %3, align 8, !tbaa !6
  %170 = getelementptr inbounds nuw %struct.dt_dev_pixelpipe_t, ptr %169, i32 0, i32 14
  store ptr %168, ptr %170, align 8, !tbaa !90
  call void @llvm.lifetime.end.p0(i64 8, ptr %13) #17
  call void @llvm.lifetime.end.p0(i64 8, ptr %12) #17
  br label %171

171:                                              ; preds = %89
  %172 = load ptr, ptr %11, align 8, !tbaa !91
  %173 = icmp ne ptr %172, null
  br i1 %173, label %174, label %178

174:                                              ; preds = %171
  %175 = load ptr, ptr %11, align 8, !tbaa !91
  %176 = getelementptr inbounds nuw %struct._GList, ptr %175, i32 0, i32 1
  %177 = load ptr, ptr %176, align 8, !tbaa !129
  br label %179

178:                                              ; preds = %171
  br label %179

179:                                              ; preds = %178, %174
  %180 = phi ptr [ %177, %174 ], [ null, %178 ]
  store ptr %180, ptr %11, align 8, !tbaa !91
  br label %85

181:                                              ; preds = %88
  %182 = load ptr, ptr %3, align 8, !tbaa !6
  %183 = getelementptr inbounds nuw %struct.dt_dev_pixelpipe_t, ptr %182, i32 0, i32 29
  %184 = call i32 @dt_pthread_mutex_unlock(ptr noundef %183)
  ret void
}