; Function Attrs: nounwind uwtable
define void @dt_dev_pixelpipe_create_nodes(ptr noundef %0, ptr noundef readonly captures(none) %1) local_unnamed_addr #0 {
  %3 = getelementptr inbounds nuw i8, ptr %0, i64 480
  %4 = tail call i32 @pthread_mutex_lock(ptr noundef nonnull %3) #27
  %5 = getelementptr inbounds nuw i8, ptr %0, i64 588
  store atomic i32 0, ptr %5 seq_cst, align 4
  %6 = getelementptr inbounds nuw i8, ptr %0, i64 328
  %7 = load ptr, ptr %6, align 8, !tbaa !171
  %.not = icmp eq ptr %7, null
  br i1 %.not, label %9, label %8, !prof !198

8:                                                ; preds = %2
  tail call void @g_assertion_message_expr(ptr noundef null, ptr noundef nonnull @.str.53, i32 noundef 415, ptr noundef nonnull @__func__.dt_dev_pixelpipe_create_nodes, ptr noundef nonnull @.str.54) #28
  unreachable

9:                                                ; preds = %2
  %10 = getelementptr inbounds nuw i8, ptr %0, i64 2520
  %11 = load ptr, ptr %10, align 8, !tbaa !173
  %.not58 = icmp eq ptr %11, null
  br i1 %.not58, label %13, label %12, !prof !198

12:                                               ; preds = %9
  tail call void @g_assertion_message_expr(ptr noundef null, ptr noundef nonnull @.str.53, i32 noundef 416, ptr noundef nonnull @__func__.dt_dev_pixelpipe_create_nodes, ptr noundef nonnull @.str.55) #28
  unreachable

13:                                               ; preds = %9
  %14 = getelementptr inbounds nuw i8, ptr %0, i64 2528
  %15 = load ptr, ptr %14, align 16, !tbaa !178
  %.not60 = icmp eq ptr %15, null
  br i1 %.not60, label %17, label %16, !prof !198

16:                                               ; preds = %13
  tail call void @g_assertion_message_expr(ptr noundef null, ptr noundef nonnull @.str.53, i32 noundef 417, ptr noundef nonnull @__func__.dt_dev_pixelpipe_create_nodes, ptr noundef nonnull @.str.56) #28
  unreachable

17:                                               ; preds = %13
  %18 = getelementptr inbounds nuw i8, ptr %1, i64 2080
  %19 = load ptr, ptr %18, align 16, !tbaa !199
  %20 = tail call ptr @dt_ioppr_iop_order_copy_deep(ptr noundef %19) #27
  store ptr %20, ptr %14, align 16, !tbaa !178
  %21 = getelementptr inbounds nuw i8, ptr %1, i64 2056
  %22 = load ptr, ptr %21, align 8, !tbaa !200
  %23 = tail call ptr @g_list_copy(ptr noundef %22) #27
  store ptr %23, ptr %10, align 8, !tbaa !173
  %.not6162 = icmp eq ptr %23, null
  br i1 %.not6162, label %._crit_edge, label %.lr.ph

.lr.ph:                                           ; preds = %17
  %24 = getelementptr inbounds nuw i8, ptr %0, i64 152
  %25 = getelementptr inbounds nuw i8, ptr %0, i64 144
  %26 = getelementptr inbounds nuw i8, ptr %0, i64 148
  br label %28

._crit_edge:                                      ; preds = %28, %17
  %27 = tail call i32 @pthread_mutex_unlock(ptr noundef nonnull %3) #27
  ret void

28:                                               ; preds = %.lr.ph, %28
  %.05563 = phi ptr [ %23, %.lr.ph ], [ %63, %28 ]
  %29 = load ptr, ptr %.05563, align 8, !tbaa !86
  %30 = tail call noalias dereferenceable_or_null(496) ptr @calloc(i64 noundef 1, i64 noundef 496) #26
  %31 = getelementptr inbounds nuw i8, ptr %29, i64 672
  %32 = load i32, ptr %31, align 16, !tbaa !201
  %33 = getelementptr inbounds nuw i8, ptr %30, i64 32
  store i32 %32, ptr %33, align 16, !tbaa !202
  %34 = getelementptr inbounds nuw i8, ptr %30, i64 36
  store i32 2, ptr %34, align 4, !tbaa !203
  %35 = getelementptr inbounds nuw i8, ptr %30, i64 40
  store ptr null, ptr %35, align 8, !tbaa !204
  %36 = getelementptr inbounds nuw i8, ptr %30, i64 48
  store i32 256, ptr %36, align 8, !tbaa !205
  %37 = getelementptr inbounds nuw i8, ptr %30, i64 64
  store i32 0, ptr %37, align 16, !tbaa !206
  %38 = getelementptr inbounds nuw i8, ptr %30, i64 80
  store i32 0, ptr %38, align 16, !tbaa !207
  %39 = getelementptr inbounds nuw i8, ptr %29, i64 120
  %40 = load ptr, ptr %39, align 8, !tbaa !208
  %41 = tail call i32 %40(ptr noundef %29, ptr noundef nonnull %0, ptr noundef null) #27
  %42 = icmp eq i32 %41, 0
  %43 = select i1 %42, i32 1, i32 4
  %44 = getelementptr inbounds nuw i8, ptr %30, i64 132
  store i32 %43, ptr %44, align 4, !tbaa !209
  %45 = load float, ptr %24, align 8, !tbaa !162
  %46 = getelementptr inbounds nuw i8, ptr %30, i64 104
  store float %45, ptr %46, align 8, !tbaa !210
  %47 = load i32, ptr %25, align 16, !tbaa !139
  %48 = getelementptr inbounds nuw i8, ptr %30, i64 108
  store i32 %47, ptr %48, align 4, !tbaa !211
  %49 = load i32, ptr %26, align 4, !tbaa !143
  %50 = getelementptr inbounds nuw i8, ptr %30, i64 112
  store i32 %49, ptr %50, align 16, !tbaa !212
  store ptr %29, ptr %30, align 16, !tbaa !88
  %51 = getelementptr inbounds nuw i8, ptr %30, i64 8
  store ptr %0, ptr %51, align 8, !tbaa !213
  %52 = getelementptr inbounds nuw i8, ptr %30, i64 16
  store ptr null, ptr %52, align 16, !tbaa !214
  %53 = getelementptr inbounds nuw i8, ptr %30, i64 120
  store i64 0, ptr %53, align 8, !tbaa !215
  %54 = getelementptr inbounds nuw i8, ptr %30, i64 216
  store i32 0, ptr %54, align 8, !tbaa !216
  %55 = getelementptr inbounds nuw i8, ptr %30, i64 220
  store i32 0, ptr %55, align 4, !tbaa !217
  %56 = tail call ptr @g_hash_table_new_full(ptr noundef nonnull @g_direct_hash, ptr noundef nonnull @g_direct_equal, ptr noundef null, ptr noundef nonnull @free) #27
  %57 = getelementptr inbounds nuw i8, ptr %30, i64 480
  store ptr %56, ptr %57, align 16, !tbaa !177
  %58 = getelementptr inbounds nuw i8, ptr %30, i64 176
  tail call void @llvm.memset.p0.i64(ptr noundef nonnull align 16 dereferenceable(40) %58, i8 0, i64 40, i1 false)
  %59 = load ptr, ptr %30, align 16, !tbaa !88
  tail call void @dt_iop_init_pipe(ptr noundef %59, ptr noundef nonnull %0, ptr noundef nonnull %30) #27
  %60 = load ptr, ptr %6, align 8, !tbaa !171
  %61 = tail call ptr @g_list_append(ptr noundef %60, ptr noundef nonnull %30) #27
  store ptr %61, ptr %6, align 8, !tbaa !171
  %62 = getelementptr inbounds nuw i8, ptr %.05563, i64 8
  %63 = load ptr, ptr %62, align 8, !tbaa !218
  %.not61 = icmp eq ptr %63, null
  br i1 %.not61, label %._crit_edge, label %28
}